; Function Attrs: nounwind uwtable
define internal void @itemgetter_dealloc(ptr noundef %0) #0 {
  %2 = getelementptr i8, ptr %0, i64 8
  %.val = load ptr, ptr %2, align 8, !tbaa !19
  tail call void @PyObject_GC_UnTrack(ptr noundef %0) #7
  %3 = getelementptr inbounds nuw i8, ptr %0, i64 24
  %4 = load ptr, ptr %3, align 8, !tbaa !17
  %.not.i6 = icmp eq ptr %4, null
  br i1 %.not.i6, label %itemgetter_clear.exit, label %5

5:                                                ; preds = %1
  store ptr null, ptr %3, align 8, !tbaa !17
  %6 = load i32, ptr %4, align 8, !tbaa !18
  %.not.i.i = icmp sgt i32 %6, -1
  br i1 %.not.i.i, label %7, label %itemgetter_clear.exit

7:                                                ; preds = %5
  %8 = add nsw i32 %6, -1
  store i32 %8, ptr %4, align 8, !tbaa !18
  %9 = icmp eq i32 %8, 0
  br i1 %9, label %10, label %itemgetter_clear.exit

10:                                               ; preds = %7
  tail call void @_Py_Dealloc(ptr noundef nonnull %4) #7
  br label %itemgetter_clear.exit

itemgetter_clear.exit:                            ; preds = %1, %5, %7, %10
  %11 = getelementptr inbounds nuw i8, ptr %.val, i64 320
  %12 = load ptr, ptr %11, align 8, !tbaa !42
  tail call void %12(ptr noundef nonnull %0) #7
  %13 = load i32, ptr %.val, align 8, !tbaa !18
  %.not.i = icmp sgt i32 %13, -1
  br i1 %.not.i, label %14, label %Py_DECREF.exit

14:                                               ; preds = %itemgetter_clear.exit
  %15 = add nsw i32 %13, -1
  store i32 %15, ptr %.val, align 8, !tbaa !18
  %16 = icmp eq i32 %15, 0
  br i1 %16, label %17, label %Py_DECREF.exit

17:                                               ; preds = %14
  tail call void @_Py_Dealloc(ptr noundef nonnull %.val) #7
  br label %Py_DECREF.exit

Py_DECREF.exit:                                   ; preds = %itemgetter_clear.exit, %14, %17
  ret void
}